target datalayout = "e-m:e-p270:32:32-p271:32:32-p272:64:64-i64:64-i128:128-f80:128-n8:16:32:64-S128"
target triple = "x86_64-unknown-linux-gnu"

%"class.icu_75::numparse::impl::SymbolMatcher" = type { %"class.icu_75::numparse::impl::NumberParseMatcher", %"class.icu_75::UnicodeString", ptr }
%"class.icu_75::numparse::impl::NumberParseMatcher" = type { ptr }
%"class.icu_75::UnicodeString" = type { %"class.icu_75::Replaceable", %"union.icu_75::UnicodeString::StackBufferOrFields" }
%"class.icu_75::Replaceable" = type { %"class.icu_75::UObject" }
%"class.icu_75::UObject" = type { ptr }
%"union.icu_75::UnicodeString::StackBufferOrFields" = type { %struct.anon.0, [32 x i8] }
%struct.anon.0 = type { i16, i32, i32, ptr }
%struct.anon = type { i16, [27 x i16] }

@_ZTVN6icu_758numparse4impl18NumberParseMatcherE = external unnamed_addr constant { [9 x ptr] }, align 8
@_ZTVN6icu_7513UnicodeStringE = external unnamed_addr constant { [13 x ptr] }, align 8
@_ZTVN6icu_7511ReplaceableE = external unnamed_addr constant { [13 x ptr] }, align 8
@_ZTVN6icu_757UObjectE = external unnamed_addr constant { [5 x ptr] }, align 8

; Function Attrs: mustprogress nounwind uwtable
define linkonce_odr void @_ZN6icu_757UObjectC2Ev(ptr noundef nonnull align 8 dereferenceable(8) %this) unnamed_addr #1 comdat align 2 {
entry:
  %this.addr = alloca ptr, align 8
  store ptr %this, ptr %this.addr, align 8
  %this1 = load ptr, ptr %this.addr, align 8
  store ptr getelementptr inbounds ({ [5 x ptr] }, ptr @_ZTVN6icu_757UObjectE, i32 0, i32 0, i32 2), ptr %this1, align 8
  ret void
}

; Function Attrs: mustprogress nounwind uwtable
define linkonce_odr void @_ZN6icu_7511ReplaceableC2Ev(ptr noundef nonnull align 8 dereferenceable(8) %this) unnamed_addr #1 comdat align 2 {
entry:
  %this.addr = alloca ptr, align 8
  store ptr %this, ptr %this.addr, align 8
  %this1 = load ptr, ptr %this.addr, align 8
  call void @_ZN6icu_757UObjectC2Ev(ptr noundef nonnull align 8 dereferenceable(8) %this1) #5
  store ptr getelementptr inbounds ({ [13 x ptr] }, ptr @_ZTVN6icu_7511ReplaceableE, i32 0, i32 0, i32 2), ptr %this1, align 8
  ret void
}

; Function Attrs: mustprogress uwtable
define linkonce_odr void @_ZN6icu_7513UnicodeStringC2Ev(ptr noundef nonnull align 8 dereferenceable(64) %this) unnamed_addr #0 comdat align 2 {
entry:
  %this.addr = alloca ptr, align 8
  store ptr %this, ptr %this.addr, align 8
  %this1 = load ptr, ptr %this.addr, align 8
  call void @_ZN6icu_7511ReplaceableC2Ev(ptr noundef nonnull align 8 dereferenceable(8) %this1)
  store ptr getelementptr inbounds ({ [13 x ptr] }, ptr @_ZTVN6icu_7513UnicodeStringE, i32 0, i32 0, i32 2), ptr %this1, align 8
  %fUnion2 = getelementptr inbounds %"class.icu_75::UnicodeString", ptr %this1, i32 0, i32 1
  %fLengthAndFlags = getelementptr inbounds %struct.anon, ptr %fUnion2, i32 0, i32 0
  store i16 2, ptr %fLengthAndFlags, align 8
  ret void
}

; Function Attrs: mustprogress nounwind uwtable
define linkonce_odr void @_ZN6icu_758numparse4impl18NumberParseMatcherC2Ev(ptr noundef nonnull align 8 dereferenceable(8) %this) unnamed_addr #1 comdat align 2 {
entry:
  %this.addr = alloca ptr, align 8
  store ptr %this, ptr %this.addr, align 8
  %this1 = load ptr, ptr %this.addr, align 8
  store ptr getelementptr inbounds ({ [9 x ptr] }, ptr @_ZTVN6icu_758numparse4impl18NumberParseMatcherE, i32 0, i32 0, i32 2), ptr %this1, align 8
  ret void
}

; Function Attrs: mustprogress uwtable
define void @_ZN6icu_758numparse4impl13SymbolMatcherC2ERKNS_13UnicodeStringENS_7unisets3KeyE(ptr noundef nonnull align 8 dereferenceable(80) %this, ptr noundef nonnull align 8 dereferenceable(64) %symbolString, i32 noundef %key) unnamed_addr #0 align 2 personality ptr @__gxx_personality_v0 {
entry:
  %this.addr = alloca ptr, align 8
  %symbolString.addr = alloca ptr, align 8
  %key.addr = alloca i32, align 4
  %exn.slot = alloca ptr, align 8
  %ehselector.slot = alloca i32, align 4
  store ptr %this, ptr %this.addr, align 8
  store ptr %symbolString, ptr %symbolString.addr, align 8
  store i32 %key, ptr %key.addr, align 4
  %this1 = load ptr, ptr %this.addr, align 8
  call void @_ZN6icu_758numparse4impl18NumberParseMatcherC2Ev(ptr noundef nonnull align 8 dereferenceable(8) %this1) #5
  store ptr getelementptr inbounds ({ [11 x ptr] }, ptr @_ZTVN6icu_758numparse4impl13SymbolMatcherE, i32 0, i32 0, i32 2), ptr %this1, align 8
  %fString = getelementptr inbounds %"class.icu_75::numparse::impl::SymbolMatcher", ptr %this1, i32 0, i32 1
  invoke void @_ZN6icu_7513UnicodeStringC2Ev(ptr noundef nonnull align 8 dereferenceable(64) %fString)
          to label %invoke.cont unwind label %lpad

invoke.cont:                                      ; preds = %entry
  %0 = load i32, ptr %key.addr, align 4
  %call = invoke noundef ptr @_ZN6icu_757unisets3getENS0_3KeyE(i32 noundef %0)
          to label %invoke.cont3 unwind label %lpad2

invoke.cont3:                                     ; preds = %invoke.cont
  %fUniSet = getelementptr inbounds %"class.icu_75::numparse::impl::SymbolMatcher", ptr %this1, i32 0, i32 2
  store ptr %call, ptr %fUniSet, align 8
  %fUniSet4 = getelementptr inbounds %"class.icu_75::numparse::impl::SymbolMatcher", ptr %this1, i32 0, i32 2
  %1 = load ptr, ptr %fUniSet4, align 8
  %2 = load ptr, ptr %symbolString.addr, align 8
  %call6 = invoke noundef signext i8 @_ZNK6icu_7510UnicodeSet8containsERKNS_13UnicodeStringE(ptr noundef nonnull align 8 dereferenceable(200) %1, ptr noundef nonnull align 8 dereferenceable(64) %2)
          to label %invoke.cont5 unwind label %lpad2

invoke.cont5:                                     ; preds = %invoke.cont3
  %tobool = icmp ne i8 %call6, 0
  br i1 %tobool, label %if.then, label %if.else

if.then:                                          ; preds = %invoke.cont5
  %fString7 = getelementptr inbounds %"class.icu_75::numparse::impl::SymbolMatcher", ptr %this1, i32 0, i32 1
  invoke void @_ZN6icu_7513UnicodeString10setToBogusEv(ptr noundef nonnull align 8 dereferenceable(64) %fString7)
          to label %invoke.cont8 unwind label %lpad2

invoke.cont8:                                     ; preds = %if.then
  br label %if.end

lpad:                                             ; preds = %entry
  %3 = landingpad { ptr, i32 }
          cleanup
  %4 = extractvalue { ptr, i32 } %3, 0
  store ptr %4, ptr %exn.slot, align 8
  %5 = extractvalue { ptr, i32 } %3, 1
  store i32 %5, ptr %ehselector.slot, align 4
  br label %ehcleanup

lpad2:                                            ; preds = %if.else, %if.then, %invoke.cont3, %invoke.cont
  %6 = landingpad { ptr, i32 }
          cleanup
  %7 = extractvalue { ptr, i32 } %6, 0
  store ptr %7, ptr %exn.slot, align 8
  %8 = extractvalue { ptr, i32 } %6, 1
  store i32 %8, ptr %ehselector.slot, align 4
  call void @_ZN6icu_7513UnicodeStringD1Ev(ptr noundef nonnull align 8 dereferenceable(64) %fString) #5
  br label %ehcleanup

if.else:                                          ; preds = %invoke.cont5
  %9 = load ptr, ptr %symbolString.addr, align 8
  %fString9 = getelementptr inbounds %"class.icu_75::numparse::impl::SymbolMatcher", ptr %this1, i32 0, i32 1
  %call11 = invoke noundef nonnull align 8 dereferenceable(64) ptr @_ZN6icu_7513UnicodeStringaSERKS0_(ptr noundef nonnull align 8 dereferenceable(64) %fString9, ptr noundef nonnull align 8 dereferenceable(64) %9)
          to label %invoke.cont10 unwind label %lpad2

invoke.cont10:                                    ; preds = %if.else
  br label %if.end

if.end:                                           ; preds = %invoke.cont10, %invoke.cont8
  ret void

ehcleanup:                                        ; preds = %lpad2, %lpad
  call void @_ZN6icu_758numparse4impl18NumberParseMatcherD2Ev(ptr noundef nonnull align 8 dereferenceable(8) %this1) #5
  br label %eh.resume

eh.resume:                                        ; preds = %ehcleanup
  %exn = load ptr, ptr %exn.slot, align 8
  %sel = load i32, ptr %ehselector.slot, align 4
  %lpad.val = insertvalue { ptr, i32 } poison, ptr %exn, 0
  %lpad.val12 = insertvalue { ptr, i32 } %lpad.val, i32 %sel, 1
  resume { ptr, i32 } %lpad.val12
}